; Function Attrs: mustprogress uwtable
define void @_ZN17PreferencesDialog21on_buttonBox_rejectedEv(ptr nocapture noundef nonnull readonly align 8 dereferenceable(248) %0) local_unnamed_addr #0 align 2 {
  %2 = getelementptr inbounds i8, ptr %0, i64 64
  %3 = load ptr, ptr %2, align 8
  %4 = getelementptr inbounds i8, ptr %3, i64 80
  %5 = load ptr, ptr %4, align 8
  tail call void @_ZN8UatFrame13rejectChangesEv(ptr noundef nonnull align 8 dereferenceable(72) %5)
  %6 = load ptr, ptr %2, align 8
  %7 = getelementptr inbounds i8, ptr %6, i64 72
  %8 = load ptr, ptr %7, align 8
  tail call void @_ZN8UatFrame13rejectChangesEv(ptr noundef nonnull align 8 dereferenceable(72) %8)
  %9 = load ptr, ptr %2, align 8
  %10 = getelementptr inbounds i8, ptr %9, i64 88
  %11 = load ptr, ptr %10, align 8
  tail call void @_ZN12RsaKeysFrame13rejectChangesEv(ptr noundef nonnull align 8 dereferenceable(64) %11)
  ret void
}